; Function Attrs: mustprogress uwtable
define internal void @_ZNK5faiss12_GLOBAL__N_118IVFBinaryScannerL2INS_22HammingComputerDefaultEE16scan_codes_rangeEmPKhPKliRNS_16RangeQueryResultE(ptr noundef nonnull align 8 dereferenceable(48) %0, i64 noundef %1, ptr noalias noundef %2, ptr noalias nocapture noundef readonly %3, i32 noundef %4, ptr noundef nonnull align 8 dereferenceable(24) %5) unnamed_addr #1 align 2 {
  %.not18 = icmp eq i64 %1, 0
  br i1 %.not18, label %._crit_edge, label %.lr.ph

.lr.ph:                                           ; preds = %6
  %7 = getelementptr inbounds i8, ptr %0, i64 8
  %8 = getelementptr inbounds i8, ptr %0, i64 32
  %9 = getelementptr inbounds i8, ptr %0, i64 40
  %10 = getelementptr inbounds i8, ptr %0, i64 24
  br label %11

11:                                               ; preds = %.lr.ph, %27
  %.017 = phi ptr [ %2, %.lr.ph ], [ %29, %27 ]
  %.01315 = phi i64 [ 0, %.lr.ph ], [ %30, %27 ]
  %12 = tail call noundef i32 @_ZNK5faiss22HammingComputerDefault7hammingEPKh(ptr noundef nonnull align 8 dereferenceable(16) %7, ptr noundef %.017)
  %13 = icmp ult i32 %12, %4
  br i1 %13, label %14, label %27

14:                                               ; preds = %11
  %15 = load i8, ptr %8, align 8
  %16 = and i8 %15, 1
  %.not = icmp eq i8 %16, 0
  br i1 %.not, label %21, label %17

17:                                               ; preds = %14
  %18 = load i64, ptr %9, align 8
  %19 = shl i64 %18, 32
  %20 = or i64 %19, %.01315
  br label %24

21:                                               ; preds = %14
  %22 = getelementptr inbounds i64, ptr %3, i64 %.01315
  %23 = load i64, ptr %22, align 8
  br label %24

24:                                               ; preds = %21, %17
  %25 = phi i64 [ %20, %17 ], [ %23, %21 ]
  %26 = uitofp i32 %12 to float
  tail call void @_ZN5faiss16RangeQueryResult3addEfl(ptr noundef nonnull align 8 dereferenceable(24) %5, float noundef %26, i64 noundef %25)
  br label %27

27:                                               ; preds = %24, %11
  %28 = load i64, ptr %10, align 8
  %29 = getelementptr inbounds i8, ptr %.017, i64 %28
  %30 = add nuw i64 %.01315, 1
  %exitcond.not = icmp eq i64 %30, %1
  br i1 %exitcond.not, label %._crit_edge, label %11, !llvm.loop !222

._crit_edge:                                      ; preds = %27, %6
  ret void
}